; Function Attrs: mustprogress nofree norecurse nosync nounwind willreturn memory(read, argmem: readwrite, inaccessiblemem: none) uwtable
define void @_ZN8QuantLib35RendistatoEquivalentSwapLengthQuoteC2EN5boost10shared_ptrINS_20RendistatoCalculatorEEE(ptr nocapture noundef nonnull writeonly align 8 dereferenceable(24) %this, ptr nocapture noundef readonly %vtt, ptr nocapture noundef %r) unnamed_addr #13 align 2 {
entry:
  %0 = getelementptr inbounds i8, ptr %vtt, i64 8
  %1 = load ptr, ptr %0, align 8
  store ptr %1, ptr %this, align 8, !tbaa !33
  %2 = getelementptr inbounds i8, ptr %vtt, i64 16
  %3 = load ptr, ptr %2, align 8
  %vbase.offset.ptr.i = getelementptr i8, ptr %1, i64 -24
  %vbase.offset.i = load i64, ptr %vbase.offset.ptr.i, align 8
  %add.ptr.i = getelementptr inbounds i8, ptr %this, i64 %vbase.offset.i
  store ptr %3, ptr %add.ptr.i, align 8, !tbaa !33
  %4 = load ptr, ptr %vtt, align 8
  store ptr %4, ptr %this, align 8, !tbaa !33
  %5 = getelementptr inbounds i8, ptr %vtt, i64 24
  %6 = load ptr, ptr %5, align 8
  %vbase.offset.ptr = getelementptr i8, ptr %4, i64 -24
  %vbase.offset = load i64, ptr %vbase.offset.ptr, align 8
  %add.ptr = getelementptr inbounds i8, ptr %this, i64 %vbase.offset
  store ptr %6, ptr %add.ptr, align 8, !tbaa !33
  %r_ = getelementptr inbounds nuw i8, ptr %this, i64 8
  %7 = load ptr, ptr %r, align 8, !tbaa !57
  store ptr %7, ptr %r_, align 8, !tbaa !57
  %pn.i = getelementptr inbounds nuw i8, ptr %this, i64 16
  %pn3.i = getelementptr inbounds nuw i8, ptr %r, i64 8
  %8 = load ptr, ptr %pn3.i, align 8, !tbaa !49
  store ptr %8, ptr %pn.i, align 8, !tbaa !49
  tail call void @llvm.memset.p0.i64(ptr noundef nonnull align 8 dereferenceable(16) %r, i8 0, i64 16, i1 false)
  ret void
}